target datalayout = "e-m:e-p270:32:32-p271:32:32-p272:64:64-i64:64-i128:128-f80:128-n8:16:32:64-S128"
target triple = "x86_64-pc-linux-gnu"

%"class.cv::Mat" = type { i32, i32, i32, i32, ptr, ptr, ptr, ptr, ptr, ptr, %"struct.cv::MatSize", %"struct.cv::MatStep" }
%"struct.cv::MatSize" = type { ptr }
%"struct.cv::MatStep" = type { ptr, [2 x i64] }
%class.anon.8 = type { i32 }
%"class.cv::MatExpr" = type { ptr, i32, %"class.cv::Mat", %"class.cv::Mat", %"class.cv::Mat", double, double, %"class.cv::Scalar_" }
%"class.cv::Scalar_" = type { %"class.cv::Vec" }
%"class.cv::Vec" = type { %"class.cv::Matx" }
%"class.cv::Matx" = type { [4 x double] }
%"class.cv::Range" = type { i32, i32 }

; Function Attrs: inlinehint mustprogress uwtable
define linkonce_odr hidden i64 @_ZN2cv5Range3allEv() #12 comdat align 2 {
  %1 = alloca %"class.cv::Range", align 4
  call void @_ZN2cv5RangeC2Eii(ptr noundef nonnull align 4 dereferenceable(8) %1, i32 noundef -2147483648, i32 noundef 2147483647)
  %2 = load i64, ptr %1, align 4
  ret i64 %2
}

; Function Attrs: inlinehint mustprogress nounwind uwtable
define linkonce_odr hidden void @_ZN2cv5RangeC2Eii(ptr noundef nonnull align 4 dereferenceable(8) %0, i32 noundef %1, i32 noundef %2) unnamed_addr #8 comdat align 2 {
  %4 = alloca ptr, align 8
  %5 = alloca i32, align 4
  %6 = alloca i32, align 4
  store ptr %0, ptr %4, align 8, !tbaa !229
  store i32 %1, ptr %5, align 4, !tbaa !7
  store i32 %2, ptr %6, align 4, !tbaa !7
  %7 = load ptr, ptr %4, align 8
  %8 = getelementptr inbounds nuw %"class.cv::Range", ptr %7, i32 0, i32 0
  %9 = load i32, ptr %5, align 4, !tbaa !7
  store i32 %9, ptr %8, align 4, !tbaa !231
  %10 = getelementptr inbounds nuw %"class.cv::Range", ptr %7, i32 0, i32 1
  %11 = load i32, ptr %6, align 4, !tbaa !7
  store i32 %11, ptr %10, align 4, !tbaa !233
  ret void
}

; Function Attrs: inlinehint mustprogress uwtable
define linkonce_odr hidden noundef nonnull align 8 dereferenceable(96) ptr @_ZN2cv3MataSERKNS_7MatExprE(ptr noundef nonnull align 8 dereferenceable(96) %0, ptr noundef nonnull align 8 dereferenceable(352) %1) #12 comdat align 2 {
  %3 = alloca ptr, align 8
  %4 = alloca ptr, align 8
  store ptr %0, ptr %3, align 8, !tbaa !47
  store ptr %1, ptr %4, align 8, !tbaa !81
  %5 = load ptr, ptr %3, align 8
  %6 = load ptr, ptr %4, align 8, !tbaa !81
  %7 = getelementptr inbounds nuw %"class.cv::MatExpr", ptr %6, i32 0, i32 0
  %8 = load ptr, ptr %7, align 8, !tbaa !83
  %9 = load ptr, ptr %4, align 8, !tbaa !81
  %10 = load ptr, ptr %8, align 8, !tbaa !21
  %11 = getelementptr inbounds ptr, ptr %10, i64 3
  %12 = load ptr, ptr %11, align 8
  call void %12(ptr noundef nonnull align 8 dereferenceable(8) %8, ptr noundef nonnull align 8 dereferenceable(352) %9, ptr noundef nonnull align 8 dereferenceable(96) %5, i32 noundef -1)
  ret ptr %5
}

; Function Attrs: inlinehint mustprogress uwtable
define linkonce_odr hidden void @_ZNK2cv3Mat3rowEi(ptr dead_on_unwind noalias writable sret(%"class.cv::Mat") align 8 %0, ptr noundef nonnull align 8 dereferenceable(96) %1, i32 noundef %2) #12 comdat align 2 {
  %4 = alloca ptr, align 8
  %5 = alloca ptr, align 8
  %6 = alloca i32, align 4
  %7 = alloca %"class.cv::Range", align 4
  %8 = alloca %"class.cv::Range", align 4
  store ptr %0, ptr %4, align 8
  store ptr %1, ptr %5, align 8, !tbaa !47
  store i32 %2, ptr %6, align 4, !tbaa !7
  %9 = load ptr, ptr %5, align 8
  call void @llvm.lifetime.start.p0(i64 8, ptr %7) #3
  %10 = load i32, ptr %6, align 4, !tbaa !7
  %11 = load i32, ptr %6, align 4, !tbaa !7
  %12 = add nsw i32 %11, 1
  call void @_ZN2cv5RangeC2Eii(ptr noundef nonnull align 4 dereferenceable(8) %7, i32 noundef %10, i32 noundef %12)
  call void @llvm.lifetime.start.p0(i64 8, ptr %8) #3
  %13 = call i64 @_ZN2cv5Range3allEv()
  store i64 %13, ptr %8, align 4
  call void @_ZN2cv3MatC1ERKS0_RKNS_5RangeES5_(ptr noundef nonnull align 8 dereferenceable(96) %0, ptr noundef nonnull align 8 dereferenceable(96) %9, ptr noundef nonnull align 4 dereferenceable(8) %7, ptr noundef nonnull align 4 dereferenceable(8) %8)
  call void @llvm.lifetime.end.p0(i64 8, ptr %8) #3
  call void @llvm.lifetime.end.p0(i64 8, ptr %7) #3
  ret void
}

; Function Attrs: inlinehint mustprogress uwtable
define linkonce_odr hidden void @_ZNK2cv7MatExprcvNS_3MatEEv(ptr dead_on_unwind noalias writable sret(%"class.cv::Mat") align 8 %0, ptr noundef nonnull align 8 dereferenceable(352) %1) #12 comdat align 2 personality ptr @__gxx_personality_v0 {
  %3 = alloca ptr, align 8
  %4 = alloca ptr, align 8
  %5 = alloca i1, align 1
  %6 = alloca ptr, align 8
  %7 = alloca i32, align 4
  store ptr %0, ptr %3, align 8
  store ptr %1, ptr %4, align 8, !tbaa !81
  %8 = load ptr, ptr %4, align 8
  store i1 false, ptr %5, align 1
  call void @_ZN2cv3MatC1Ev(ptr noundef nonnull align 8 dereferenceable(96) %0) #3
  %9 = getelementptr inbounds nuw %"class.cv::MatExpr", ptr %8, i32 0, i32 0
  %10 = load ptr, ptr %9, align 8, !tbaa !83
  %11 = load ptr, ptr %10, align 8, !tbaa !21
  %12 = getelementptr inbounds ptr, ptr %11, i64 3
  %13 = load ptr, ptr %12, align 8
  invoke void %13(ptr noundef nonnull align 8 dereferenceable(8) %10, ptr noundef nonnull align 8 dereferenceable(352) %8, ptr noundef nonnull align 8 dereferenceable(96) %0, i32 noundef -1)
          to label %14 unwind label %16

14:                                               ; preds = %2
  store i1 true, ptr %5, align 1
  %15 = load i1, ptr %5, align 1
  br i1 %15, label %21, label %20

16:                                               ; preds = %2
  %17 = landingpad { ptr, i32 }
          cleanup
  %18 = extractvalue { ptr, i32 } %17, 0
  store ptr %18, ptr %6, align 8
  %19 = extractvalue { ptr, i32 } %17, 1
  store i32 %19, ptr %7, align 4
  call void @_ZN2cv3MatD1Ev(ptr noundef nonnull align 8 dereferenceable(96) %0) #3
  br label %22

20:                                               ; preds = %14
  call void @_ZN2cv3MatD1Ev(ptr noundef nonnull align 8 dereferenceable(96) %0) #3
  br label %21

21:                                               ; preds = %20, %14
  ret void

22:                                               ; preds = %16
  %23 = load ptr, ptr %6, align 8
  %24 = load i32, ptr %7, align 4
  %25 = insertvalue { ptr, i32 } poison, ptr %23, 0
  %26 = insertvalue { ptr, i32 } %25, i32 %24, 1
  resume { ptr, i32 } %26
}

; Function Attrs: inlinehint mustprogress uwtable
define internal void @"_ZZN2cv16estimateAffine3DERKNS_11_InputArrayES2_PdbENK3$_1clERKNS_3MatES7_"(ptr dead_on_unwind noalias writable sret(%"class.cv::Mat") align 8 %0, ptr noundef nonnull align 4 dereferenceable(4) %1, ptr noundef nonnull align 8 dereferenceable(96) %2, ptr noundef nonnull align 8 dereferenceable(96) %3) #12 align 2 personality ptr @__gxx_personality_v0 {
  %5 = alloca ptr, align 8
  %6 = alloca ptr, align 8
  %7 = alloca ptr, align 8
  %8 = alloca ptr, align 8
  %9 = alloca i1, align 1
  %10 = alloca %"class.cv::MatExpr", align 8
  %11 = alloca ptr, align 8
  %12 = alloca i32, align 4
  %13 = alloca i32, align 4
  %14 = alloca %"class.cv::MatExpr", align 8
  %15 = alloca %"class.cv::Mat", align 8
  %16 = alloca %"class.cv::Mat", align 8
  store ptr %0, ptr %5, align 8
  store ptr %1, ptr %6, align 8, !tbaa !80
  store ptr %2, ptr %7, align 8, !tbaa !47
  store ptr %3, ptr %8, align 8, !tbaa !47
  %17 = load ptr, ptr %6, align 8
  store i1 false, ptr %9, align 1
  call void @llvm.lifetime.start.p0(i64 352, ptr %10) #3
  %18 = getelementptr inbounds nuw %class.anon.8, ptr %17, i32 0, i32 0
  %19 = load i32, ptr %18, align 4, !tbaa !66
  call void @_ZN2cv3Mat5zerosEiii(ptr dead_on_unwind writable sret(%"class.cv::MatExpr") align 8 %10, i32 noundef %19, i32 noundef 3, i32 noundef 6)
  invoke void @_ZNK2cv7MatExprcvNS_3MatEEv(ptr dead_on_unwind writable sret(%"class.cv::Mat") align 8 %0, ptr noundef nonnull align 8 dereferenceable(352) %10)
          to label %20 unwind label %27

20:                                               ; preds = %4
  call void @_ZN2cv7MatExprD2Ev(ptr noundef nonnull align 8 dereferenceable(352) %10) #3
  call void @llvm.lifetime.end.p0(i64 352, ptr %10) #3
  call void @llvm.lifetime.start.p0(i64 4, ptr %13) #3
  store i32 0, ptr %13, align 4, !tbaa !7
  br label %21

21:                                               ; preds = %41, %20
  %22 = load i32, ptr %13, align 4, !tbaa !7
  %23 = getelementptr inbounds nuw %class.anon.8, ptr %17, i32 0, i32 0
  %24 = load i32, ptr %23, align 4, !tbaa !66
  %25 = icmp slt i32 %22, %24
  br i1 %25, label %31, label %26

26:                                               ; preds = %21
  call void @llvm.lifetime.end.p0(i64 4, ptr %13) #3
  br label %63

27:                                               ; preds = %4
  %28 = landingpad { ptr, i32 }
          cleanup
  %29 = extractvalue { ptr, i32 } %28, 0
  store ptr %29, ptr %11, align 8
  %30 = extractvalue { ptr, i32 } %28, 1
  store i32 %30, ptr %12, align 4
  call void @_ZN2cv7MatExprD2Ev(ptr noundef nonnull align 8 dereferenceable(352) %10) #3
  call void @llvm.lifetime.end.p0(i64 352, ptr %10) #3
  br label %67

31:                                               ; preds = %21
  call void @llvm.lifetime.start.p0(i64 352, ptr %14) #3
  call void @llvm.lifetime.start.p0(i64 96, ptr %15) #3
  %32 = load ptr, ptr %7, align 8, !tbaa !47
  %33 = load i32, ptr %13, align 4, !tbaa !7
  invoke void @_ZNK2cv3Mat3rowEi(ptr dead_on_unwind writable sret(%"class.cv::Mat") align 8 %15, ptr noundef nonnull align 8 dereferenceable(96) %32, i32 noundef %33)
          to label %34 unwind label %44

34:                                               ; preds = %31
  %35 = load ptr, ptr %8, align 8, !tbaa !47
  invoke void @_ZN2cvmiERKNS_3MatES2_(ptr dead_on_unwind writable sret(%"class.cv::MatExpr") align 8 %14, ptr noundef nonnull align 8 dereferenceable(96) %15, ptr noundef nonnull align 8 dereferenceable(96) %35)
          to label %36 unwind label %48

36:                                               ; preds = %34
  call void @llvm.lifetime.start.p0(i64 96, ptr %16) #3
  %37 = load i32, ptr %13, align 4, !tbaa !7
  invoke void @_ZNK2cv3Mat3rowEi(ptr dead_on_unwind writable sret(%"class.cv::Mat") align 8 %16, ptr noundef nonnull align 8 dereferenceable(96) %0, i32 noundef %37)
          to label %38 unwind label %52

38:                                               ; preds = %36
  %39 = invoke noundef nonnull align 8 dereferenceable(96) ptr @_ZN2cv3MataSERKNS_7MatExprE(ptr noundef nonnull align 8 dereferenceable(96) %16, ptr noundef nonnull align 8 dereferenceable(352) %14)
          to label %40 unwind label %56

40:                                               ; preds = %38
  call void @_ZN2cv3MatD1Ev(ptr noundef nonnull align 8 dereferenceable(96) %16) #3
  call void @llvm.lifetime.end.p0(i64 96, ptr %16) #3
  call void @_ZN2cv7MatExprD2Ev(ptr noundef nonnull align 8 dereferenceable(352) %14) #3
  call void @_ZN2cv3MatD1Ev(ptr noundef nonnull align 8 dereferenceable(96) %15) #3
  call void @llvm.lifetime.end.p0(i64 96, ptr %15) #3
  call void @llvm.lifetime.end.p0(i64 352, ptr %14) #3
  br label %41

41:                                               ; preds = %40
  %42 = load i32, ptr %13, align 4, !tbaa !7
  %43 = add nsw i32 %42, 1
  store i32 %43, ptr %13, align 4, !tbaa !7
  br label %21, !llvm.loop !89

44:                                               ; preds = %31
  %45 = landingpad { ptr, i32 }
          cleanup
  %46 = extractvalue { ptr, i32 } %45, 0
  store ptr %46, ptr %11, align 8
  %47 = extractvalue { ptr, i32 } %45, 1
  store i32 %47, ptr %12, align 4
  br label %62

48:                                               ; preds = %34
  %49 = landingpad { ptr, i32 }
          cleanup
  %50 = extractvalue { ptr, i32 } %49, 0
  store ptr %50, ptr %11, align 8
  %51 = extractvalue { ptr, i32 } %49, 1
  store i32 %51, ptr %12, align 4
  br label %61

52:                                               ; preds = %36
  %53 = landingpad { ptr, i32 }
          cleanup
  %54 = extractvalue { ptr, i32 } %53, 0
  store ptr %54, ptr %11, align 8
  %55 = extractvalue { ptr, i32 } %53, 1
  store i32 %55, ptr %12, align 4
  br label %60

56:                                               ; preds = %38
  %57 = landingpad { ptr, i32 }
          cleanup
  %58 = extractvalue { ptr, i32 } %57, 0
  store ptr %58, ptr %11, align 8
  %59 = extractvalue { ptr, i32 } %57, 1
  store i32 %59, ptr %12, align 4
  call void @_ZN2cv3MatD1Ev(ptr noundef nonnull align 8 dereferenceable(96) %16) #3
  br label %60

60:                                               ; preds = %56, %52
  call void @llvm.lifetime.end.p0(i64 96, ptr %16) #3
  call void @_ZN2cv7MatExprD2Ev(ptr noundef nonnull align 8 dereferenceable(352) %14) #3
  br label %61

61:                                               ; preds = %60, %48
  call void @_ZN2cv3MatD1Ev(ptr noundef nonnull align 8 dereferenceable(96) %15) #3
  br label %62

62:                                               ; preds = %61, %44
  call void @llvm.lifetime.end.p0(i64 96, ptr %15) #3
  call void @llvm.lifetime.end.p0(i64 352, ptr %14) #3
  call void @llvm.lifetime.end.p0(i64 4, ptr %13) #3
  call void @_ZN2cv3MatD1Ev(ptr noundef nonnull align 8 dereferenceable(96) %0) #3
  br label %67

63:                                               ; preds = %26
  store i1 true, ptr %9, align 1
  %64 = load i1, ptr %9, align 1
  br i1 %64, label %66, label %65

65:                                               ; preds = %63
  call void @_ZN2cv3MatD1Ev(ptr noundef nonnull align 8 dereferenceable(96) %0) #3
  br label %66

66:                                               ; preds = %65, %63
  ret void

67:                                               ; preds = %62, %27
  %68 = load ptr, ptr %11, align 8
  %69 = load i32, ptr %12, align 4
  %70 = insertvalue { ptr, i32 } poison, ptr %68, 0
  %71 = insertvalue { ptr, i32 } %70, i32 %69, 1
  resume { ptr, i32 } %71
}