; Function Attrs: inlinehint mustprogress uwtable
define internal fastcc void @"_ZZN2cv16estimateAffine3DERKNS_11_InputArrayES2_PdbENK3$_1clERKNS_3MatES7_"(ptr dead_on_unwind noalias nonnull writable align 8 %0, i32 %.0.val, ptr noundef nonnull align 8 dereferenceable(96) %1, ptr noundef nonnull align 8 dereferenceable(96) %2) unnamed_addr #11 align 2 personality ptr @__gxx_personality_v0 {
  %4 = alloca %"class.cv::Range", align 4
  %5 = alloca %"class.cv::Range", align 8
  %6 = alloca %"class.cv::Range", align 4
  %7 = alloca %"class.cv::Range", align 8
  %8 = alloca %"class.cv::MatExpr", align 8
  %9 = alloca %"class.cv::MatExpr", align 8
  %10 = alloca %"class.cv::Mat", align 8
  %11 = alloca %"class.cv::Mat", align 8
  call void @llvm.lifetime.start.p0(i64 352, ptr nonnull %8) #25
  call void @_ZN2cv3Mat5zerosEiii(ptr dead_on_unwind nonnull writable sret(%"class.cv::MatExpr") align 8 %8, i32 noundef %.0.val, i32 noundef 3, i32 noundef 6)
  call void @_ZN2cv3MatC1Ev(ptr noundef nonnull align 8 dereferenceable(96) %0) #25
  %12 = load ptr, ptr %8, align 8, !tbaa !86, !noalias !133
  %13 = load ptr, ptr %12, align 8, !tbaa !14
  %14 = getelementptr inbounds nuw i8, ptr %13, i64 24
  %15 = load ptr, ptr %14, align 8
  invoke void %15(ptr noundef nonnull align 8 dereferenceable(8) %12, ptr noundef nonnull align 8 dereferenceable(352) %8, ptr noundef nonnull align 8 dereferenceable(96) %0, i32 noundef -1)
          to label %_ZNK2cv7MatExprcvNS_3MatEEv.exit unwind label %.body

.body:                                            ; preds = %3
  %16 = landingpad { ptr, i32 }
          cleanup
  call void @_ZN2cv3MatD1Ev(ptr noundef nonnull align 8 dereferenceable(96) %0) #25
  call void @_ZN2cv7MatExprD2Ev(ptr noundef nonnull align 8 dereferenceable(352) %8) #25
  call void @llvm.lifetime.end.p0(i64 352, ptr nonnull %8) #25
  br label %46

_ZNK2cv7MatExprcvNS_3MatEEv.exit:                 ; preds = %3
  %17 = getelementptr inbounds nuw i8, ptr %8, i64 208
  call void @_ZN2cv3MatD1Ev(ptr noundef nonnull align 8 dereferenceable(96) %17) #25
  %18 = getelementptr inbounds nuw i8, ptr %8, i64 112
  call void @_ZN2cv3MatD1Ev(ptr noundef nonnull align 8 dereferenceable(96) %18) #25
  %19 = getelementptr inbounds nuw i8, ptr %8, i64 16
  call void @_ZN2cv3MatD1Ev(ptr noundef nonnull align 8 dereferenceable(96) %19) #25
  call void @llvm.lifetime.end.p0(i64 352, ptr nonnull %8) #25
  %20 = icmp sgt i32 %.0.val, 0
  br i1 %20, label %.lr.ph, label %._crit_edge

.lr.ph:                                           ; preds = %_ZNK2cv7MatExprcvNS_3MatEEv.exit
  %21 = getelementptr inbounds nuw i8, ptr %6, i64 4
  %22 = getelementptr inbounds nuw i8, ptr %4, i64 4
  %23 = getelementptr inbounds nuw i8, ptr %9, i64 208
  %24 = getelementptr inbounds nuw i8, ptr %9, i64 112
  %25 = getelementptr inbounds nuw i8, ptr %9, i64 16
  br label %26

26:                                               ; preds = %.lr.ph, %_ZN2cv3MataSERKNS_7MatExprE.exit
  %.01 = phi i32 [ 0, %.lr.ph ], [ %27, %_ZN2cv3MataSERKNS_7MatExprE.exit ]
  call void @llvm.lifetime.start.p0(i64 352, ptr nonnull %9) #25
  call void @llvm.lifetime.start.p0(i64 96, ptr nonnull %10) #25
  call void @llvm.lifetime.start.p0(i64 8, ptr nonnull %6) #25, !noalias !136
  %27 = add nuw nsw i32 %.01, 1
  store i32 %.01, ptr %6, align 4, !tbaa !117, !noalias !136
  store i32 %27, ptr %21, align 4, !tbaa !119, !noalias !136
  call void @llvm.lifetime.start.p0(i64 8, ptr nonnull %7) #25, !noalias !136
  store i64 9223372034707292160, ptr %7, align 8, !noalias !136
  invoke void @_ZN2cv3MatC1ERKS0_RKNS_5RangeES5_(ptr noundef nonnull align 8 dereferenceable(96) %10, ptr noundef nonnull align 8 dereferenceable(96) %1, ptr noundef nonnull align 4 dereferenceable(8) %6, ptr noundef nonnull align 4 dereferenceable(8) %7)
          to label %28 unwind label %35

28:                                               ; preds = %26
  call void @llvm.lifetime.end.p0(i64 8, ptr nonnull %7) #25, !noalias !136
  call void @llvm.lifetime.end.p0(i64 8, ptr nonnull %6) #25, !noalias !136
  invoke void @_ZN2cvmiERKNS_3MatES2_(ptr dead_on_unwind nonnull writable sret(%"class.cv::MatExpr") align 8 %9, ptr noundef nonnull align 8 dereferenceable(96) %10, ptr noundef nonnull align 8 dereferenceable(96) %2)
          to label %29 unwind label %37

29:                                               ; preds = %28
  call void @llvm.lifetime.start.p0(i64 96, ptr nonnull %11) #25
  call void @llvm.lifetime.start.p0(i64 8, ptr nonnull %4) #25, !noalias !139
  store i32 %.01, ptr %4, align 4, !tbaa !117, !noalias !139
  store i32 %27, ptr %22, align 4, !tbaa !119, !noalias !139
  call void @llvm.lifetime.start.p0(i64 8, ptr nonnull %5) #25, !noalias !139
  store i64 9223372034707292160, ptr %5, align 8, !noalias !139
  invoke void @_ZN2cv3MatC1ERKS0_RKNS_5RangeES5_(ptr noundef nonnull align 8 dereferenceable(96) %11, ptr noundef nonnull align 8 dereferenceable(96) %0, ptr noundef nonnull align 4 dereferenceable(8) %4, ptr noundef nonnull align 4 dereferenceable(8) %5)
          to label %30 unwind label %39

30:                                               ; preds = %29
  call void @llvm.lifetime.end.p0(i64 8, ptr nonnull %5) #25, !noalias !139
  call void @llvm.lifetime.end.p0(i64 8, ptr nonnull %4) #25, !noalias !139
  %31 = load ptr, ptr %9, align 8, !tbaa !86
  %32 = load ptr, ptr %31, align 8, !tbaa !14
  %33 = getelementptr inbounds nuw i8, ptr %32, i64 24
  %34 = load ptr, ptr %33, align 8
  invoke void %34(ptr noundef nonnull align 8 dereferenceable(8) %31, ptr noundef nonnull align 8 dereferenceable(352) %9, ptr noundef nonnull align 8 dereferenceable(96) %11, i32 noundef -1)
          to label %_ZN2cv3MataSERKNS_7MatExprE.exit unwind label %41

_ZN2cv3MataSERKNS_7MatExprE.exit:                 ; preds = %30
  call void @_ZN2cv3MatD1Ev(ptr noundef nonnull align 8 dereferenceable(96) %11) #25
  call void @llvm.lifetime.end.p0(i64 96, ptr nonnull %11) #25
  call void @_ZN2cv3MatD1Ev(ptr noundef nonnull align 8 dereferenceable(96) %23) #25
  call void @_ZN2cv3MatD1Ev(ptr noundef nonnull align 8 dereferenceable(96) %24) #25
  call void @_ZN2cv3MatD1Ev(ptr noundef nonnull align 8 dereferenceable(96) %25) #25
  call void @_ZN2cv3MatD1Ev(ptr noundef nonnull align 8 dereferenceable(96) %10) #25
  call void @llvm.lifetime.end.p0(i64 96, ptr nonnull %10) #25
  call void @llvm.lifetime.end.p0(i64 352, ptr nonnull %9) #25
  %exitcond.not = icmp eq i32 %27, %.0.val
  br i1 %exitcond.not, label %._crit_edge, label %26, !llvm.loop !142

35:                                               ; preds = %26
  %36 = landingpad { ptr, i32 }
          cleanup
  br label %45

37:                                               ; preds = %28
  %38 = landingpad { ptr, i32 }
          cleanup
  br label %44

39:                                               ; preds = %29
  %40 = landingpad { ptr, i32 }
          cleanup
  br label %43

41:                                               ; preds = %30
  %42 = landingpad { ptr, i32 }
          cleanup
  call void @_ZN2cv3MatD1Ev(ptr noundef nonnull align 8 dereferenceable(96) %11) #25
  br label %43

43:                                               ; preds = %41, %39
  %.pn = phi { ptr, i32 } [ %42, %41 ], [ %40, %39 ]
  call void @llvm.lifetime.end.p0(i64 96, ptr nonnull %11) #25
  call void @_ZN2cv7MatExprD2Ev(ptr noundef nonnull align 8 dereferenceable(352) %9) #25
  br label %44

44:                                               ; preds = %43, %37
  %.pn.pn = phi { ptr, i32 } [ %.pn, %43 ], [ %38, %37 ]
  call void @_ZN2cv3MatD1Ev(ptr noundef nonnull align 8 dereferenceable(96) %10) #25
  br label %45

45:                                               ; preds = %44, %35
  %.pn.pn.pn = phi { ptr, i32 } [ %.pn.pn, %44 ], [ %36, %35 ]
  call void @llvm.lifetime.end.p0(i64 96, ptr nonnull %10) #25
  call void @llvm.lifetime.end.p0(i64 352, ptr nonnull %9) #25
  call void @_ZN2cv3MatD1Ev(ptr noundef nonnull align 8 dereferenceable(96) %0) #25
  br label %46

._crit_edge:                                      ; preds = %_ZN2cv3MataSERKNS_7MatExprE.exit, %_ZNK2cv7MatExprcvNS_3MatEEv.exit
  ret void

46:                                               ; preds = %45, %.body
  %.pn.pn.pn.pn = phi { ptr, i32 } [ %.pn.pn.pn, %45 ], [ %16, %.body ]
  resume { ptr, i32 } %.pn.pn.pn.pn
}